; ModuleID = '20/152.c'
source_filename = "20/152.c"
target datalayout = "e-m:e-p270:32:32-p271:32:32-p272:64:64-i64:64-f80:128-n8:16:32:64-S128"
target triple = "x86_64-pc-linux-gnu"

@.str = private unnamed_addr constant [6 x i8] c"%s %s\00", align 1

; Function Attrs: noinline nounwind uwtable
define dso_local void @main() #0 {
  %1 = alloca [11 x i8], align 1
  %2 = alloca [4 x i8], align 1
  %3 = alloca [14 x i8], align 1
  %4 = alloca i32, align 4
  %5 = alloca i32, align 4
  %6 = alloca i32, align 4
  %7 = alloca i32, align 4
  br label %8

8:                                                ; preds = %88, %0
  %9 = getelementptr inbounds [11 x i8], [11 x i8]* %1, i64 0, i64 0
  %10 = getelementptr inbounds [4 x i8], [4 x i8]* %2, i64 0, i64 0
  %11 = call i32 (i8*, ...) @__isoc99_scanf(i8* getelementptr inbounds ([6 x i8], [6 x i8]* @.str, i64 0, i64 0), i8* %9, i8* %10)
  %12 = icmp ne i32 %11, -1
  br i1 %12, label %13, label %94

13:                                               ; preds = %8
  store i32 0, i32* %6, align 4
  store i32 0, i32* %5, align 4
  br label %14

14:                                               ; preds = %38, %13
  %15 = load i32, i32* %5, align 4
  %16 = sext i32 %15 to i64
  %17 = getelementptr inbounds [11 x i8], [11 x i8]* %1, i64 0, i64 %16
  %18 = load i8, i8* %17, align 1
  %19 = sext i8 %18 to i32
  %20 = icmp eq i32 %19, 0
  br i1 %20, label %21, label %22

21:                                               ; preds = %14
  br label %41

22:                                               ; preds = %14
  %23 = load i32, i32* %5, align 4
  %24 = sext i32 %23 to i64
  %25 = getelementptr inbounds [11 x i8], [11 x i8]* %1, i64 0, i64 %24
  %26 = load i8, i8* %25, align 1
  %27 = sext i8 %26 to i32
  %28 = load i32, i32* %6, align 4
  %29 = icmp sgt i32 %27, %28
  br i1 %29, label %30, label %37

30:                                               ; preds = %22
  %31 = load i32, i32* %5, align 4
  %32 = sext i32 %31 to i64
  %33 = getelementptr inbounds [11 x i8], [11 x i8]* %1, i64 0, i64 %32
  %34 = load i8, i8* %33, align 1
  %35 = sext i8 %34 to i32
  store i32 %35, i32* %6, align 4
  %36 = load i32, i32* %5, align 4
  store i32 %36, i32* %7, align 4
  br label %37

37:                                               ; preds = %30, %22
  br label %38

38:                                               ; preds = %37
  %39 = load i32, i32* %5, align 4
  %40 = add nsw i32 %39, 1
  store i32 %40, i32* %5, align 4
  br label %14

41:                                               ; preds = %21
  store i32 0, i32* %4, align 4
  br label %42

42:                                               ; preds = %54, %41
  %43 = load i32, i32* %4, align 4
  %44 = load i32, i32* %7, align 4
  %45 = icmp sle i32 %43, %44
  br i1 %45, label %46, label %57

46:                                               ; preds = %42
  %47 = load i32, i32* %4, align 4
  %48 = sext i32 %47 to i64
  %49 = getelementptr inbounds [11 x i8], [11 x i8]* %1, i64 0, i64 %48
  %50 = load i8, i8* %49, align 1
  %51 = load i32, i32* %4, align 4
  %52 = sext i32 %51 to i64
  %53 = getelementptr inbounds [14 x i8], [14 x i8]* %3, i64 0, i64 %52
  store i8 %50, i8* %53, align 1
  br label %54

54:                                               ; preds = %46
  %55 = load i32, i32* %4, align 4
  %56 = add nsw i32 %55, 1
  store i32 %56, i32* %4, align 4
  br label %42

57:                                               ; preds = %42
  %58 = load i32, i32* %7, align 4
  %59 = add nsw i32 %58, 1
  %60 = sext i32 %59 to i64
  %61 = getelementptr inbounds [14 x i8], [14 x i8]* %3, i64 0, i64 %60
  store i8 0, i8* %61, align 1
  %62 = getelementptr inbounds [14 x i8], [14 x i8]* %3, i64 0, i64 0
  %63 = getelementptr inbounds [4 x i8], [4 x i8]* %2, i64 0, i64 0
  %64 = call i8* @strcat(i8* %62, i8* %63) #3
  %65 = load i32, i32* %7, align 4
  %66 = add nsw i32 %65, 4
  store i32 %66, i32* %4, align 4
  br label %67

67:                                               ; preds = %85, %57
  %68 = load i32, i32* %4, align 4
  %69 = sub nsw i32 %68, 3
  %70 = sext i32 %69 to i64
  %71 = getelementptr inbounds [11 x i8], [11 x i8]* %1, i64 0, i64 %70
  %72 = load i8, i8* %71, align 1
  %73 = sext i8 %72 to i32
  %74 = icmp eq i32 %73, 0
  br i1 %74, label %75, label %76

75:                                               ; preds = %67
  br label %88

76:                                               ; preds = %67
  %77 = load i32, i32* %4, align 4
  %78 = sub nsw i32 %77, 3
  %79 = sext i32 %78 to i64
  %80 = getelementptr inbounds [11 x i8], [11 x i8]* %1, i64 0, i64 %79
  %81 = load i8, i8* %80, align 1
  %82 = load i32, i32* %4, align 4
  %83 = sext i32 %82 to i64
  %84 = getelementptr inbounds [14 x i8], [14 x i8]* %3, i64 0, i64 %83
  store i8 %81, i8* %84, align 1
  br label %85

85:                                               ; preds = %76
  %86 = load i32, i32* %4, align 4
  %87 = add nsw i32 %86, 1
  store i32 %87, i32* %4, align 4
  br label %67

88:                                               ; preds = %75
  %89 = load i32, i32* %4, align 4
  %90 = sext i32 %89 to i64
  %91 = getelementptr inbounds [14 x i8], [14 x i8]* %3, i64 0, i64 %90
  store i8 0, i8* %91, align 1
  %92 = getelementptr inbounds [14 x i8], [14 x i8]* %3, i64 0, i64 0
  %93 = call i32 @puts(i8* %92)
  br label %8

94:                                               ; preds = %8
  ret void
}

declare dso_local i32 @__isoc99_scanf(i8*, ...) #1

; Function Attrs: nounwind
declare dso_local i8* @strcat(i8*, i8*) #2

declare dso_local i32 @puts(i8*) #1


!llvm.module.flags = !{!0}
!llvm.ident = !{!1}

!0 = !{i32 1, !"wchar_size", i32 4}
!1 = !{!"clang version 10.0.0-4ubuntu1 "}
